target datalayout = "e-m:e-p270:32:32-p271:32:32-p272:64:64-i64:64-i128:128-f80:128-n8:16:32:64-S128"
target triple = "x86_64-pc-linux-gnu"

%struct.llama_context = type { ptr, %struct.llama_cparams, %struct.llama_sbatch, %struct.llama_kv_cache, %struct.llama_adapter_cvec, %"class.std::unordered_map", %"class.std::vector.50", %"class.std::vector.55", ptr, ptr, ptr, i8, i64, i64, i64, i64, i64, i64, i32, i32, %"class.std::unique_ptr", i64, ptr, %"class.std::vector.5", i64, i32, i8, i64, ptr, %"class.std::map", i8, i32, %"class.std::vector.10", %"class.std::vector.65", %"class.std::vector.70", %"class.std::unique_ptr.75", ptr, ptr, ptr, ptr, ptr, ptr, ptr, ptr, ptr, ptr, ptr, ptr, ptr, ptr, ptr, ptr, ptr }
%struct.llama_cparams = type { i32, i32, i32, i32, i32, i32, float, float, i32, float, float, float, float, float, i8, i8, i8, i8, i8, i32, ptr, ptr }
%struct.llama_sbatch = type { i64, i64, i8, %"class.std::vector", %"class.std::vector", %"class.std::vector.0", ptr, %"class.std::vector.5", %"class.std::vector.10", %"class.std::vector.5", %"class.std::vector.5", %"class.std::vector.15", %"class.std::vector.20" }
%"class.std::vector" = type { %"struct.std::_Vector_base" }
%"struct.std::_Vector_base" = type { %"struct.std::_Vector_base<unsigned long, std::allocator<unsigned long>>::_Vector_impl" }
%"struct.std::_Vector_base<unsigned long, std::allocator<unsigned long>>::_Vector_impl" = type { %"struct.std::_Vector_base<unsigned long, std::allocator<unsigned long>>::_Vector_impl_data" }
%"struct.std::_Vector_base<unsigned long, std::allocator<unsigned long>>::_Vector_impl_data" = type { ptr, ptr, ptr }
%"class.std::vector.0" = type { %"struct.std::_Vector_base.1" }
%"struct.std::_Vector_base.1" = type { %"struct.std::_Vector_base<llama_sbatch_seq, std::allocator<llama_sbatch_seq>>::_Vector_impl" }
%"struct.std::_Vector_base<llama_sbatch_seq, std::allocator<llama_sbatch_seq>>::_Vector_impl" = type { %"struct.std::_Vector_base<llama_sbatch_seq, std::allocator<llama_sbatch_seq>>::_Vector_impl_data" }
%"struct.std::_Vector_base<llama_sbatch_seq, std::allocator<llama_sbatch_seq>>::_Vector_impl_data" = type { ptr, ptr, ptr }
%"class.std::vector.15" = type { %"struct.std::_Vector_base.16" }
%"struct.std::_Vector_base.16" = type { %"struct.std::_Vector_base<int *, std::allocator<int *>>::_Vector_impl" }
%"struct.std::_Vector_base<int *, std::allocator<int *>>::_Vector_impl" = type { %"struct.std::_Vector_base<int *, std::allocator<int *>>::_Vector_impl_data" }
%"struct.std::_Vector_base<int *, std::allocator<int *>>::_Vector_impl_data" = type { ptr, ptr, ptr }
%"class.std::vector.20" = type { %"struct.std::_Vector_base.21" }
%"struct.std::_Vector_base.21" = type { %"struct.std::_Vector_base<signed char, std::allocator<signed char>>::_Vector_impl" }
%"struct.std::_Vector_base<signed char, std::allocator<signed char>>::_Vector_impl" = type { %"struct.std::_Vector_base<signed char, std::allocator<signed char>>::_Vector_impl_data" }
%"struct.std::_Vector_base<signed char, std::allocator<signed char>>::_Vector_impl_data" = type { ptr, ptr, ptr }
%struct.llama_kv_cache = type { i8, i8, i8, i8, i8, i32, i32, i32, i32, i32, i32, %"class.std::vector.25", %"class.std::vector.30", %"class.std::vector.30", %"class.std::vector.35", %"class.std::vector.40" }
%"class.std::vector.25" = type { %"struct.std::_Vector_base.26" }
%"struct.std::_Vector_base.26" = type { %"struct.std::_Vector_base<llama_kv_cell, std::allocator<llama_kv_cell>>::_Vector_impl" }
%"struct.std::_Vector_base<llama_kv_cell, std::allocator<llama_kv_cell>>::_Vector_impl" = type { %"struct.std::_Vector_base<llama_kv_cell, std::allocator<llama_kv_cell>>::_Vector_impl_data" }
%"struct.std::_Vector_base<llama_kv_cell, std::allocator<llama_kv_cell>>::_Vector_impl_data" = type { ptr, ptr, ptr }
%"class.std::vector.30" = type { %"struct.std::_Vector_base.31" }
%"struct.std::_Vector_base.31" = type { %"struct.std::_Vector_base<ggml_tensor *, std::allocator<ggml_tensor *>>::_Vector_impl" }
%"struct.std::_Vector_base<ggml_tensor *, std::allocator<ggml_tensor *>>::_Vector_impl" = type { %"struct.std::_Vector_base<ggml_tensor *, std::allocator<ggml_tensor *>>::_Vector_impl_data" }
%"struct.std::_Vector_base<ggml_tensor *, std::allocator<ggml_tensor *>>::_Vector_impl_data" = type { ptr, ptr, ptr }
%"class.std::vector.35" = type { %"struct.std::_Vector_base.36" }
%"struct.std::_Vector_base.36" = type { %"struct.std::_Vector_base<std::unique_ptr<ggml_context, ggml_context_deleter>, std::allocator<std::unique_ptr<ggml_context, ggml_context_deleter>>>::_Vector_impl" }
%"struct.std::_Vector_base<std::unique_ptr<ggml_context, ggml_context_deleter>, std::allocator<std::unique_ptr<ggml_context, ggml_context_deleter>>>::_Vector_impl" = type { %"struct.std::_Vector_base<std::unique_ptr<ggml_context, ggml_context_deleter>, std::allocator<std::unique_ptr<ggml_context, ggml_context_deleter>>>::_Vector_impl_data" }
%"struct.std::_Vector_base<std::unique_ptr<ggml_context, ggml_context_deleter>, std::allocator<std::unique_ptr<ggml_context, ggml_context_deleter>>>::_Vector_impl_data" = type { ptr, ptr, ptr }
%"class.std::vector.40" = type { %"struct.std::_Vector_base.41" }
%"struct.std::_Vector_base.41" = type { %"struct.std::_Vector_base<std::unique_ptr<ggml_backend_buffer, ggml_backend_buffer_deleter>, std::allocator<std::unique_ptr<ggml_backend_buffer, ggml_backend_buffer_deleter>>>::_Vector_impl" }
%"struct.std::_Vector_base<std::unique_ptr<ggml_backend_buffer, ggml_backend_buffer_deleter>, std::allocator<std::unique_ptr<ggml_backend_buffer, ggml_backend_buffer_deleter>>>::_Vector_impl" = type { %"struct.std::_Vector_base<std::unique_ptr<ggml_backend_buffer, ggml_backend_buffer_deleter>, std::allocator<std::unique_ptr<ggml_backend_buffer, ggml_backend_buffer_deleter>>>::_Vector_impl_data" }
%"struct.std::_Vector_base<std::unique_ptr<ggml_backend_buffer, ggml_backend_buffer_deleter>, std::allocator<std::unique_ptr<ggml_backend_buffer, ggml_backend_buffer_deleter>>>::_Vector_impl_data" = type { ptr, ptr, ptr }
%struct.llama_adapter_cvec = type { i32, i32, %"class.std::vector.35", %"class.std::vector.40", %"class.std::vector.30" }
%"class.std::unordered_map" = type { %"class.std::_Hashtable" }
%"class.std::_Hashtable" = type { ptr, i64, %"struct.std::__detail::_Hash_node_base", i64, %"struct.std::__detail::_Prime_rehash_policy", ptr }
%"struct.std::__detail::_Hash_node_base" = type { ptr }
%"struct.std::__detail::_Prime_rehash_policy" = type { float, i64 }
%"class.std::vector.50" = type { %"struct.std::_Vector_base.51" }
%"struct.std::_Vector_base.51" = type { %"struct.std::_Vector_base<std::unique_ptr<ggml_backend, ggml_backend_deleter>, std::allocator<std::unique_ptr<ggml_backend, ggml_backend_deleter>>>::_Vector_impl" }
%"struct.std::_Vector_base<std::unique_ptr<ggml_backend, ggml_backend_deleter>, std::allocator<std::unique_ptr<ggml_backend, ggml_backend_deleter>>>::_Vector_impl" = type { %"struct.std::_Vector_base<std::unique_ptr<ggml_backend, ggml_backend_deleter>, std::allocator<std::unique_ptr<ggml_backend, ggml_backend_deleter>>>::_Vector_impl_data" }
%"struct.std::_Vector_base<std::unique_ptr<ggml_backend, ggml_backend_deleter>, std::allocator<std::unique_ptr<ggml_backend, ggml_backend_deleter>>>::_Vector_impl_data" = type { ptr, ptr, ptr }
%"class.std::vector.55" = type { %"struct.std::_Vector_base.56" }
%"struct.std::_Vector_base.56" = type { %"struct.std::_Vector_base<std::pair<ggml_backend *, void (*)(ggml_backend *, int)>, std::allocator<std::pair<ggml_backend *, void (*)(ggml_backend *, int)>>>::_Vector_impl" }
%"struct.std::_Vector_base<std::pair<ggml_backend *, void (*)(ggml_backend *, int)>, std::allocator<std::pair<ggml_backend *, void (*)(ggml_backend *, int)>>>::_Vector_impl" = type { %"struct.std::_Vector_base<std::pair<ggml_backend *, void (*)(ggml_backend *, int)>, std::allocator<std::pair<ggml_backend *, void (*)(ggml_backend *, int)>>>::_Vector_impl_data" }
%"struct.std::_Vector_base<std::pair<ggml_backend *, void (*)(ggml_backend *, int)>, std::allocator<std::pair<ggml_backend *, void (*)(ggml_backend *, int)>>>::_Vector_impl_data" = type { ptr, ptr, ptr }
%"class.std::unique_ptr" = type { %"struct.std::__uniq_ptr_data" }
%"struct.std::__uniq_ptr_data" = type { %"class.std::__uniq_ptr_impl" }
%"class.std::__uniq_ptr_impl" = type { %"class.std::tuple" }
%"class.std::tuple" = type { %"struct.std::_Tuple_impl" }
%"struct.std::_Tuple_impl" = type { %"struct.std::_Head_base.61" }
%"struct.std::_Head_base.61" = type { ptr }
%"class.std::vector.5" = type { %"struct.std::_Vector_base.6" }
%"struct.std::_Vector_base.6" = type { %"struct.std::_Vector_base<int, std::allocator<int>>::_Vector_impl" }
%"struct.std::_Vector_base<int, std::allocator<int>>::_Vector_impl" = type { %"struct.std::_Vector_base<int, std::allocator<int>>::_Vector_impl_data" }
%"struct.std::_Vector_base<int, std::allocator<int>>::_Vector_impl_data" = type { ptr, ptr, ptr }
%"class.std::map" = type { %"class.std::_Rb_tree" }
%"class.std::_Rb_tree" = type { %"struct.std::_Rb_tree<int, std::pair<const int, std::vector<float>>, std::_Select1st<std::pair<const int, std::vector<float>>>, std::less<int>>::_Rb_tree_impl" }
%"struct.std::_Rb_tree<int, std::pair<const int, std::vector<float>>, std::_Select1st<std::pair<const int, std::vector<float>>>, std::less<int>>::_Rb_tree_impl" = type { [8 x i8], %"struct.std::_Rb_tree_header" }
%"struct.std::_Rb_tree_header" = type { %"struct.std::_Rb_tree_node_base", i64 }
%"struct.std::_Rb_tree_node_base" = type { i32, ptr, ptr, ptr }
%"class.std::vector.10" = type { %"struct.std::_Vector_base.11" }
%"struct.std::_Vector_base.11" = type { %"struct.std::_Vector_base<float, std::allocator<float>>::_Vector_impl" }
%"struct.std::_Vector_base<float, std::allocator<float>>::_Vector_impl" = type { %"struct.std::_Vector_base<float, std::allocator<float>>::_Vector_impl_data" }
%"struct.std::_Vector_base<float, std::allocator<float>>::_Vector_impl_data" = type { ptr, ptr, ptr }
%"class.std::vector.65" = type { %"struct.std::_Vector_base.66" }
%"struct.std::_Vector_base.66" = type { %"struct.std::_Vector_base<std::set<int>, std::allocator<std::set<int>>>::_Vector_impl" }
%"struct.std::_Vector_base<std::set<int>, std::allocator<std::set<int>>>::_Vector_impl" = type { %"struct.std::_Vector_base<std::set<int>, std::allocator<std::set<int>>>::_Vector_impl_data" }
%"struct.std::_Vector_base<std::set<int>, std::allocator<std::set<int>>>::_Vector_impl_data" = type { ptr, ptr, ptr }
%"class.std::vector.70" = type { %"struct.std::_Vector_base.71" }
%"struct.std::_Vector_base.71" = type { %"struct.std::_Vector_base<unsigned char, std::allocator<unsigned char>>::_Vector_impl" }
%"struct.std::_Vector_base<unsigned char, std::allocator<unsigned char>>::_Vector_impl" = type { %"struct.std::_Vector_base<unsigned char, std::allocator<unsigned char>>::_Vector_impl_data" }
%"struct.std::_Vector_base<unsigned char, std::allocator<unsigned char>>::_Vector_impl_data" = type { ptr, ptr, ptr }
%"class.std::unique_ptr.75" = type { %"struct.std::__uniq_ptr_data.76" }
%"struct.std::__uniq_ptr_data.76" = type { %"class.std::__uniq_ptr_impl.77" }
%"class.std::__uniq_ptr_impl.77" = type { %"class.std::tuple.78" }
%"class.std::tuple.78" = type { %"struct.std::_Tuple_impl.79" }
%"struct.std::_Tuple_impl.79" = type { %"struct.std::_Head_base.82" }
%"struct.std::_Head_base.82" = type { ptr }

; Function Attrs: mustprogress nounwind uwtable
define void @llama_attach_threadpool(ptr noundef %0, ptr noundef %1, ptr noundef %2) #0 {
  %4 = alloca ptr, align 8
  %5 = alloca ptr, align 8
  %6 = alloca ptr, align 8
  store ptr %0, ptr %4, align 8, !tbaa !3
  store ptr %1, ptr %5, align 8, !tbaa !342
  store ptr %2, ptr %6, align 8, !tbaa !342
  %7 = load ptr, ptr %5, align 8, !tbaa !342
  %8 = load ptr, ptr %4, align 8, !tbaa !3
  %9 = getelementptr inbounds nuw %struct.llama_context, ptr %8, i32 0, i32 9
  store ptr %7, ptr %9, align 8, !tbaa !343
  %10 = load ptr, ptr %6, align 8, !tbaa !342
  %11 = icmp ne ptr %10, null
  br i1 %11, label %12, label %14

12:                                               ; preds = %3
  %13 = load ptr, ptr %6, align 8, !tbaa !342
  br label %16

14:                                               ; preds = %3
  %15 = load ptr, ptr %5, align 8, !tbaa !342
  br label %16

16:                                               ; preds = %14, %12
  %17 = phi ptr [ %13, %12 ], [ %15, %14 ]
  %18 = load ptr, ptr %4, align 8, !tbaa !3
  %19 = getelementptr inbounds nuw %struct.llama_context, ptr %18, i32 0, i32 10
  store ptr %17, ptr %19, align 8, !tbaa !344
  ret void
}