; Function Attrs: mustprogress nofree norecurse nosync nounwind willreturn memory(argmem: write) uwtable
define void @llama_attach_threadpool(ptr noundef writeonly captures(none) initializes((688, 704)) %0, ptr noundef %1, ptr noundef %2) local_unnamed_addr #11 {
  %4 = getelementptr inbounds nuw i8, ptr %0, i64 688
  store ptr %1, ptr %4, align 8, !tbaa !314
  %.not = icmp eq ptr %2, null
  %5 = select i1 %.not, ptr %1, ptr %2
  %6 = getelementptr inbounds nuw i8, ptr %0, i64 696
  store ptr %5, ptr %6, align 8, !tbaa !315
  ret void
}